; Function Attrs: nounwind uwtable
define internal void @_free_task_cg_info(ptr noundef %0) #0 {
  %2 = alloca ptr, align 8
  call void @llvm.lifetime.start.p0(i64 8, ptr nonnull %2) #11
  store ptr %0, ptr %2, align 8
  %.not = icmp eq ptr %0, null
  br i1 %.not, label %4, label %3

3:                                                ; preds = %1
  tail call void @common_cgroup_destroy(ptr noundef nonnull %0) #11
  call void @slurm_xfree(ptr noundef nonnull %2) #11
  br label %4

4:                                                ; preds = %3, %1
  call void @llvm.lifetime.end.p0(i64 8, ptr nonnull %2) #11
  ret void
}